; Function Attrs: mustprogress nounwind uwtable
define internal fastcc void @_ZL30stripAndComputeConstantOffsetsRKN4llvm10DataLayoutERPNS_5ValueEb(ptr dead_on_unwind noalias writable align 8 %0, ptr noundef nonnull align 8 dereferenceable(512) %1, ptr nocapture noundef nonnull align 8 dereferenceable(8) %2) unnamed_addr #0 {
  %4 = alloca %"class.llvm::function_ref.439", align 8
  %5 = alloca %"class.llvm::APInt", align 8
  %6 = load ptr, ptr %2, align 8
  %7 = getelementptr inbounds nuw i8, ptr %6, i64 8
  %8 = load ptr, ptr %7, align 8
  %9 = tail call noundef i32 @_ZNK4llvm10DataLayout22getIndexTypeSizeInBitsEPNS_4TypeE(ptr noundef nonnull align 8 dereferenceable(512) %1, ptr noundef %8) #18
  %10 = getelementptr inbounds nuw i8, ptr %5, i64 8
  store i32 %9, ptr %10, align 8, !alias.scope !225
  %11 = icmp ult i32 %9, 65
  br i1 %11, label %12, label %13

12:                                               ; preds = %3
  store i64 0, ptr %5, align 8, !alias.scope !225
  br label %_ZN4llvm5APInt7getZeroEj.exit

13:                                               ; preds = %3
  call void @_ZN4llvm5APInt12initSlowCaseEmb(ptr noundef nonnull align 8 dereferenceable(12) %5, i64 noundef 0, i1 noundef zeroext false) #18
  br label %_ZN4llvm5APInt7getZeroEj.exit

_ZN4llvm5APInt7getZeroEj.exit:                    ; preds = %12, %13
  %14 = load ptr, ptr %2, align 8
  call void @llvm.lifetime.start.p0(i64 16, ptr nonnull %4)
  store ptr null, ptr %4, align 8
  %15 = call noundef ptr @_ZNK4llvm5Value33stripAndAccumulateConstantOffsetsERKNS_10DataLayoutERNS_5APIntEbbNS_12function_refIFbRS0_S5_EEE(ptr noundef nonnull align 8 dereferenceable(24) %14, ptr noundef nonnull align 8 dereferenceable(512) %1, ptr noundef nonnull align 8 dereferenceable(12) %5, i1 noundef zeroext false, i1 noundef zeroext false, ptr noundef nonnull byval(%"class.llvm::function_ref.439") align 8 %4) #18
  call void @llvm.lifetime.end.p0(i64 16, ptr nonnull %4)
  store ptr %15, ptr %2, align 8
  %16 = getelementptr inbounds nuw i8, ptr %15, i64 8
  %17 = load ptr, ptr %16, align 8
  %18 = call noundef i32 @_ZNK4llvm10DataLayout22getIndexTypeSizeInBitsEPNS_4TypeE(ptr noundef nonnull align 8 dereferenceable(512) %1, ptr noundef %17) #18
  call void @_ZNK4llvm5APInt11sextOrTruncEj(ptr dead_on_unwind writable sret(%"class.llvm::APInt") align 8 %0, ptr noundef nonnull align 8 dereferenceable(12) %5, i32 noundef %18) #18
  %19 = load i32, ptr %10, align 8
  %20 = icmp ugt i32 %19, 64
  br i1 %20, label %21, label %_ZN4llvm5APIntD2Ev.exit

21:                                               ; preds = %_ZN4llvm5APInt7getZeroEj.exit
  %22 = load ptr, ptr %5, align 8
  %23 = icmp eq ptr %22, null
  br i1 %23, label %_ZN4llvm5APIntD2Ev.exit, label %24

24:                                               ; preds = %21
  call void @_ZdaPv(ptr noundef nonnull %22) #20
  br label %_ZN4llvm5APIntD2Ev.exit

_ZN4llvm5APIntD2Ev.exit:                          ; preds = %_ZN4llvm5APInt7getZeroEj.exit, %21, %24
  ret void
}